; ModuleID = '32/1651.c'
source_filename = "32/1651.c"
target datalayout = "e-m:e-p270:32:32-p271:32:32-p272:64:64-i64:64-f80:128-n8:16:32:64-S128"
target triple = "x86_64-pc-linux-gnu"

@.str = private unnamed_addr constant [3 x i8] c"%d\00", align 1
@.str.1 = private unnamed_addr constant [4 x i8] c"%s\0A\00", align 1

; Function Attrs: noinline nounwind uwtable
define dso_local i32 @main() #0 {
  %1 = alloca i32, align 4
  %2 = alloca [100 x [100 x i8]], align 16
  %3 = alloca [100 x [100 x i8]], align 16
  %4 = alloca [100 x [100 x i8]], align 16
  %5 = alloca [100 x [100 x i8]], align 16
  %6 = alloca i32, align 4
  %7 = alloca i32, align 4
  %8 = alloca i32, align 4
  %9 = alloca i32, align 4
  %10 = alloca [100 x i32], align 16
  %11 = alloca [100 x i32], align 16
  store i32 0, i32* %1, align 4
  %12 = call i32 (i8*, ...) @__isoc99_scanf(i8* getelementptr inbounds ([3 x i8], [3 x i8]* @.str, i64 0, i64 0), i32* %6)
  store i32 0, i32* %7, align 4
  br label %13

13:                                               ; preds = %33, %0
  %14 = load i32, i32* %7, align 4
  %15 = load i32, i32* %6, align 4
  %16 = icmp slt i32 %14, %15
  br i1 %16, label %17, label %36

17:                                               ; preds = %13
  %18 = load i32, i32* %7, align 4
  %19 = sext i32 %18 to i64
  %20 = getelementptr inbounds [100 x [100 x i8]], [100 x [100 x i8]]* %4, i64 0, i64 %19
  %21 = getelementptr inbounds [100 x i8], [100 x i8]* %20, i64 0, i64 0
  %22 = call i32 (i8*, ...) bitcast (i32 (...)* @gets to i32 (i8*, ...)*)(i8* %21)
  %23 = load i32, i32* %7, align 4
  %24 = sext i32 %23 to i64
  %25 = getelementptr inbounds [100 x [100 x i8]], [100 x [100 x i8]]* %2, i64 0, i64 %24
  %26 = getelementptr inbounds [100 x i8], [100 x i8]* %25, i64 0, i64 0
  %27 = call i32 (i8*, ...) bitcast (i32 (...)* @gets to i32 (i8*, ...)*)(i8* %26)
  %28 = load i32, i32* %7, align 4
  %29 = sext i32 %28 to i64
  %30 = getelementptr inbounds [100 x [100 x i8]], [100 x [100 x i8]]* %3, i64 0, i64 %29
  %31 = getelementptr inbounds [100 x i8], [100 x i8]* %30, i64 0, i64 0
  %32 = call i32 (i8*, ...) bitcast (i32 (...)* @gets to i32 (i8*, ...)*)(i8* %31)
  br label %33

33:                                               ; preds = %17
  %34 = load i32, i32* %7, align 4
  %35 = add nsw i32 %34, 1
  store i32 %35, i32* %7, align 4
  br label %13

36:                                               ; preds = %13
  store i32 0, i32* %7, align 4
  br label %37

37:                                               ; preds = %60, %36
  %38 = load i32, i32* %7, align 4
  %39 = load i32, i32* %6, align 4
  %40 = icmp slt i32 %38, %39
  br i1 %40, label %41, label %63

41:                                               ; preds = %37
  %42 = load i32, i32* %7, align 4
  %43 = sext i32 %42 to i64
  %44 = getelementptr inbounds [100 x [100 x i8]], [100 x [100 x i8]]* %2, i64 0, i64 %43
  %45 = getelementptr inbounds [100 x i8], [100 x i8]* %44, i64 0, i64 0
  %46 = call i64 @strlen(i8* %45) #3
  %47 = trunc i64 %46 to i32
  %48 = load i32, i32* %7, align 4
  %49 = sext i32 %48 to i64
  %50 = getelementptr inbounds [100 x i32], [100 x i32]* %10, i64 0, i64 %49
  store i32 %47, i32* %50, align 4
  %51 = load i32, i32* %7, align 4
  %52 = sext i32 %51 to i64
  %53 = getelementptr inbounds [100 x [100 x i8]], [100 x [100 x i8]]* %3, i64 0, i64 %52
  %54 = getelementptr inbounds [100 x i8], [100 x i8]* %53, i64 0, i64 0
  %55 = call i64 @strlen(i8* %54) #3
  %56 = trunc i64 %55 to i32
  %57 = load i32, i32* %7, align 4
  %58 = sext i32 %57 to i64
  %59 = getelementptr inbounds [100 x i32], [100 x i32]* %11, i64 0, i64 %58
  store i32 %56, i32* %59, align 4
  br label %60

60:                                               ; preds = %41
  %61 = load i32, i32* %7, align 4
  %62 = add nsw i32 %61, 1
  store i32 %62, i32* %7, align 4
  br label %37

63:                                               ; preds = %37
  store i32 0, i32* %7, align 4
  br label %64

64:                                               ; preds = %279, %63
  %65 = load i32, i32* %7, align 4
  %66 = load i32, i32* %6, align 4
  %67 = icmp slt i32 %65, %66
  br i1 %67, label %68, label %282

68:                                               ; preds = %64
  %69 = load i32, i32* %7, align 4
  %70 = sext i32 %69 to i64
  %71 = getelementptr inbounds [100 x [100 x i8]], [100 x [100 x i8]]* %5, i64 0, i64 %70
  %72 = load i32, i32* %7, align 4
  %73 = sext i32 %72 to i64
  %74 = getelementptr inbounds [100 x i32], [100 x i32]* %10, i64 0, i64 %73
  %75 = load i32, i32* %74, align 4
  %76 = sext i32 %75 to i64
  %77 = getelementptr inbounds [100 x i8], [100 x i8]* %71, i64 0, i64 %76
  store i8 0, i8* %77, align 1
  %78 = load i32, i32* %7, align 4
  %79 = sext i32 %78 to i64
  %80 = getelementptr inbounds [100 x i32], [100 x i32]* %11, i64 0, i64 %79
  %81 = load i32, i32* %80, align 4
  %82 = sub nsw i32 %81, 1
  store i32 %82, i32* %8, align 4
  br label %83

83:                                               ; preds = %245, %68
  %84 = load i32, i32* %8, align 4
  %85 = icmp sge i32 %84, 0
  br i1 %85, label %86, label %248

86:                                               ; preds = %83
  %87 = load i32, i32* %7, align 4
  %88 = sext i32 %87 to i64
  %89 = getelementptr inbounds [100 x [100 x i8]], [100 x [100 x i8]]* %2, i64 0, i64 %88
  %90 = load i32, i32* %8, align 4
  %91 = load i32, i32* %7, align 4
  %92 = sext i32 %91 to i64
  %93 = getelementptr inbounds [100 x i32], [100 x i32]* %10, i64 0, i64 %92
  %94 = load i32, i32* %93, align 4
  %95 = add nsw i32 %90, %94
  %96 = load i32, i32* %7, align 4
  %97 = sext i32 %96 to i64
  %98 = getelementptr inbounds [100 x i32], [100 x i32]* %11, i64 0, i64 %97
  %99 = load i32, i32* %98, align 4
  %100 = sub nsw i32 %95, %99
  %101 = sext i32 %100 to i64
  %102 = getelementptr inbounds [100 x i8], [100 x i8]* %89, i64 0, i64 %101
  %103 = load i8, i8* %102, align 1
  %104 = sext i8 %103 to i32
  %105 = load i32, i32* %7, align 4
  %106 = sext i32 %105 to i64
  %107 = getelementptr inbounds [100 x [100 x i8]], [100 x [100 x i8]]* %3, i64 0, i64 %106
  %108 = load i32, i32* %8, align 4
  %109 = sext i32 %108 to i64
  %110 = getelementptr inbounds [100 x i8], [100 x i8]* %107, i64 0, i64 %109
  %111 = load i8, i8* %110, align 1
  %112 = sext i8 %111 to i32
  %113 = icmp sge i32 %104, %112
  br i1 %113, label %114, label %160

114:                                              ; preds = %86
  %115 = load i32, i32* %7, align 4
  %116 = sext i32 %115 to i64
  %117 = getelementptr inbounds [100 x [100 x i8]], [100 x [100 x i8]]* %2, i64 0, i64 %116
  %118 = load i32, i32* %8, align 4
  %119 = load i32, i32* %7, align 4
  %120 = sext i32 %119 to i64
  %121 = getelementptr inbounds [100 x i32], [100 x i32]* %10, i64 0, i64 %120
  %122 = load i32, i32* %121, align 4
  %123 = add nsw i32 %118, %122
  %124 = load i32, i32* %7, align 4
  %125 = sext i32 %124 to i64
  %126 = getelementptr inbounds [100 x i32], [100 x i32]* %11, i64 0, i64 %125
  %127 = load i32, i32* %126, align 4
  %128 = sub nsw i32 %123, %127
  %129 = sext i32 %128 to i64
  %130 = getelementptr inbounds [100 x i8], [100 x i8]* %117, i64 0, i64 %129
  %131 = load i8, i8* %130, align 1
  %132 = sext i8 %131 to i32
  %133 = load i32, i32* %7, align 4
  %134 = sext i32 %133 to i64
  %135 = getelementptr inbounds [100 x [100 x i8]], [100 x [100 x i8]]* %3, i64 0, i64 %134
  %136 = load i32, i32* %8, align 4
  %137 = sext i32 %136 to i64
  %138 = getelementptr inbounds [100 x i8], [100 x i8]* %135, i64 0, i64 %137
  %139 = load i8, i8* %138, align 1
  %140 = sext i8 %139 to i32
  %141 = sub nsw i32 %132, %140
  %142 = add nsw i32 %141, 48
  %143 = trunc i32 %142 to i8
  %144 = load i32, i32* %7, align 4
  %145 = sext i32 %144 to i64
  %146 = getelementptr inbounds [100 x [100 x i8]], [100 x [100 x i8]]* %5, i64 0, i64 %145
  %147 = load i32, i32* %8, align 4
  %148 = load i32, i32* %7, align 4
  %149 = sext i32 %148 to i64
  %150 = getelementptr inbounds [100 x i32], [100 x i32]* %10, i64 0, i64 %149
  %151 = load i32, i32* %150, align 4
  %152 = add nsw i32 %147, %151
  %153 = load i32, i32* %7, align 4
  %154 = sext i32 %153 to i64
  %155 = getelementptr inbounds [100 x i32], [100 x i32]* %11, i64 0, i64 %154
  %156 = load i32, i32* %155, align 4
  %157 = sub nsw i32 %152, %156
  %158 = sext i32 %157 to i64
  %159 = getelementptr inbounds [100 x i8], [100 x i8]* %146, i64 0, i64 %158
  store i8 %143, i8* %159, align 1
  br label %244

160:                                              ; preds = %86
  %161 = load i32, i32* %7, align 4
  %162 = sext i32 %161 to i64
  %163 = getelementptr inbounds [100 x [100 x i8]], [100 x [100 x i8]]* %2, i64 0, i64 %162
  %164 = load i32, i32* %8, align 4
  %165 = load i32, i32* %7, align 4
  %166 = sext i32 %165 to i64
  %167 = getelementptr inbounds [100 x i32], [100 x i32]* %10, i64 0, i64 %166
  %168 = load i32, i32* %167, align 4
  %169 = add nsw i32 %164, %168
  %170 = load i32, i32* %7, align 4
  %171 = sext i32 %170 to i64
  %172 = getelementptr inbounds [100 x i32], [100 x i32]* %11, i64 0, i64 %171
  %173 = load i32, i32* %172, align 4
  %174 = sub nsw i32 %169, %173
  %175 = sext i32 %174 to i64
  %176 = getelementptr inbounds [100 x i8], [100 x i8]* %163, i64 0, i64 %175
  %177 = load i8, i8* %176, align 1
  %178 = sext i8 %177 to i32
  %179 = load i32, i32* %7, align 4
  %180 = sext i32 %179 to i64
  %181 = getelementptr inbounds [100 x [100 x i8]], [100 x [100 x i8]]* %3, i64 0, i64 %180
  %182 = load i32, i32* %8, align 4
  %183 = sext i32 %182 to i64
  %184 = getelementptr inbounds [100 x i8], [100 x i8]* %181, i64 0, i64 %183
  %185 = load i8, i8* %184, align 1
  %186 = sext i8 %185 to i32
  %187 = sub nsw i32 %178, %186
  %188 = add nsw i32 %187, 58
  %189 = trunc i32 %188 to i8
  %190 = load i32, i32* %7, align 4
  %191 = sext i32 %190 to i64
  %192 = getelementptr inbounds [100 x [100 x i8]], [100 x [100 x i8]]* %5, i64 0, i64 %191
  %193 = load i32, i32* %8, align 4
  %194 = load i32, i32* %7, align 4
  %195 = sext i32 %194 to i64
  %196 = getelementptr inbounds [100 x i32], [100 x i32]* %10, i64 0, i64 %195
  %197 = load i32, i32* %196, align 4
  %198 = add nsw i32 %193, %197
  %199 = load i32, i32* %7, align 4
  %200 = sext i32 %199 to i64
  %201 = getelementptr inbounds [100 x i32], [100 x i32]* %11, i64 0, i64 %200
  %202 = load i32, i32* %201, align 4
  %203 = sub nsw i32 %198, %202
  %204 = sext i32 %203 to i64
  %205 = getelementptr inbounds [100 x i8], [100 x i8]* %192, i64 0, i64 %204
  store i8 %189, i8* %205, align 1
  %206 = load i32, i32* %7, align 4
  %207 = sext i32 %206 to i64
  %208 = getelementptr inbounds [100 x [100 x i8]], [100 x [100 x i8]]* %2, i64 0, i64 %207
  %209 = load i32, i32* %8, align 4
  %210 = load i32, i32* %7, align 4
  %211 = sext i32 %210 to i64
  %212 = getelementptr inbounds [100 x i32], [100 x i32]* %10, i64 0, i64 %211
  %213 = load i32, i32* %212, align 4
  %214 = add nsw i32 %209, %213
  %215 = load i32, i32* %7, align 4
  %216 = sext i32 %215 to i64
  %217 = getelementptr inbounds [100 x i32], [100 x i32]* %11, i64 0, i64 %216
  %218 = load i32, i32* %217, align 4
  %219 = sub nsw i32 %214, %218
  %220 = sub nsw i32 %219, 1
  %221 = sext i32 %220 to i64
  %222 = getelementptr inbounds [100 x i8], [100 x i8]* %208, i64 0, i64 %221
  %223 = load i8, i8* %222, align 1
  %224 = sext i8 %223 to i32
  %225 = sub nsw i32 %224, 1
  %226 = trunc i32 %225 to i8
  %227 = load i32, i32* %7, align 4
  %228 = sext i32 %227 to i64
  %229 = getelementptr inbounds [100 x [100 x i8]], [100 x [100 x i8]]* %2, i64 0, i64 %228
  %230 = load i32, i32* %8, align 4
  %231 = load i32, i32* %7, align 4
  %232 = sext i32 %231 to i64
  %233 = getelementptr inbounds [100 x i32], [100 x i32]* %10, i64 0, i64 %232
  %234 = load i32, i32* %233, align 4
  %235 = add nsw i32 %230, %234
  %236 = load i32, i32* %7, align 4
  %237 = sext i32 %236 to i64
  %238 = getelementptr inbounds [100 x i32], [100 x i32]* %11, i64 0, i64 %237
  %239 = load i32, i32* %238, align 4
  %240 = sub nsw i32 %235, %239
  %241 = sub nsw i32 %240, 1
  %242 = sext i32 %241 to i64
  %243 = getelementptr inbounds [100 x i8], [100 x i8]* %229, i64 0, i64 %242
  store i8 %226, i8* %243, align 1
  br label %244

244:                                              ; preds = %160, %114
  br label %245

245:                                              ; preds = %244
  %246 = load i32, i32* %8, align 4
  %247 = add nsw i32 %246, -1
  store i32 %247, i32* %8, align 4
  br label %83

248:                                              ; preds = %83
  store i32 0, i32* %9, align 4
  br label %249

249:                                              ; preds = %275, %248
  %250 = load i32, i32* %9, align 4
  %251 = load i32, i32* %7, align 4
  %252 = sext i32 %251 to i64
  %253 = getelementptr inbounds [100 x i32], [100 x i32]* %10, i64 0, i64 %252
  %254 = load i32, i32* %253, align 4
  %255 = load i32, i32* %7, align 4
  %256 = sext i32 %255 to i64
  %257 = getelementptr inbounds [100 x i32], [100 x i32]* %11, i64 0, i64 %256
  %258 = load i32, i32* %257, align 4
  %259 = sub nsw i32 %254, %258
  %260 = icmp slt i32 %250, %259
  br i1 %260, label %261, label %278

261:                                              ; preds = %249
  %262 = load i32, i32* %7, align 4
  %263 = sext i32 %262 to i64
  %264 = getelementptr inbounds [100 x [100 x i8]], [100 x [100 x i8]]* %2, i64 0, i64 %263
  %265 = load i32, i32* %9, align 4
  %266 = sext i32 %265 to i64
  %267 = getelementptr inbounds [100 x i8], [100 x i8]* %264, i64 0, i64 %266
  %268 = load i8, i8* %267, align 1
  %269 = load i32, i32* %7, align 4
  %270 = sext i32 %269 to i64
  %271 = getelementptr inbounds [100 x [100 x i8]], [100 x [100 x i8]]* %5, i64 0, i64 %270
  %272 = load i32, i32* %9, align 4
  %273 = sext i32 %272 to i64
  %274 = getelementptr inbounds [100 x i8], [100 x i8]* %271, i64 0, i64 %273
  store i8 %268, i8* %274, align 1
  br label %275

275:                                              ; preds = %261
  %276 = load i32, i32* %9, align 4
  %277 = add nsw i32 %276, 1
  store i32 %277, i32* %9, align 4
  br label %249

278:                                              ; preds = %249
  br label %279

279:                                              ; preds = %278
  %280 = load i32, i32* %7, align 4
  %281 = add nsw i32 %280, 1
  store i32 %281, i32* %7, align 4
  br label %64

282:                                              ; preds = %64
  store i32 0, i32* %7, align 4
  br label %283

283:                                              ; preds = %293, %282
  %284 = load i32, i32* %7, align 4
  %285 = load i32, i32* %6, align 4
  %286 = icmp slt i32 %284, %285
  br i1 %286, label %287, label %296

287:                                              ; preds = %283
  %288 = load i32, i32* %7, align 4
  %289 = sext i32 %288 to i64
  %290 = getelementptr inbounds [100 x [100 x i8]], [100 x [100 x i8]]* %5, i64 0, i64 %289
  %291 = getelementptr inbounds [100 x i8], [100 x i8]* %290, i64 0, i64 0
  %292 = call i32 (i8*, ...) @printf(i8* getelementptr inbounds ([4 x i8], [4 x i8]* @.str.1, i64 0, i64 0), i8* %291)
  br label %293

293:                                              ; preds = %287
  %294 = load i32, i32* %7, align 4
  %295 = add nsw i32 %294, 1
  store i32 %295, i32* %7, align 4
  br label %283

296:                                              ; preds = %283
  %297 = load i32, i32* %1, align 4
  ret i32 %297
}

declare dso_local i32 @__isoc99_scanf(i8*, ...) #1

declare dso_local i32 @gets(...) #1

; Function Attrs: nounwind readonly
declare dso_local i64 @strlen(i8*) #2

declare dso_local i32 @printf(i8*, ...) #1


!llvm.module.flags = !{!0}
!llvm.ident = !{!1}

!0 = !{i32 1, !"wchar_size", i32 4}
!1 = !{!"clang version 10.0.0-4ubuntu1 "}
